; ModuleID = '31/1229.c'
source_filename = "31/1229.c"
target datalayout = "e-m:e-p270:32:32-p271:32:32-p272:64:64-i64:64-f80:128-n8:16:32:64-S128"
target triple = "x86_64-pc-linux-gnu"

%struct.stu = type { %struct.stu*, [100 x i8], %struct.stu* }

@__const.main.s = private unnamed_addr constant [4 x i8] c"end\00", align 1
@.str = private unnamed_addr constant [4 x i8] c"%s\0A\00", align 1

; Function Attrs: noinline nounwind uwtable
define dso_local void @main(%struct.stu* noalias sret %0) #0 {
  %2 = alloca [100 x i8], align 16
  %3 = alloca [4 x i8], align 1
  %4 = alloca %struct.stu*, align 8
  %5 = alloca %struct.stu*, align 8
  %6 = alloca %struct.stu*, align 8
  %7 = alloca %struct.stu*, align 8
  %8 = bitcast [4 x i8]* %3 to i8*
  call void @llvm.memcpy.p0i8.p0i8.i64(i8* align 1 %8, i8* align 1 getelementptr inbounds ([4 x i8], [4 x i8]* @__const.main.s, i32 0, i32 0), i64 4, i1 false)
  %9 = getelementptr inbounds [100 x i8], [100 x i8]* %2, i64 0, i64 0
  %10 = call i32 (i8*, ...) bitcast (i32 (...)* @gets to i32 (i8*, ...)*)(i8* %9)
  %11 = call noalias i8* @malloc(i64 100) #5
  %12 = bitcast i8* %11 to %struct.stu*
  store %struct.stu* %12, %struct.stu** %6, align 8
  %13 = getelementptr inbounds [100 x i8], [100 x i8]* %2, i64 0, i64 0
  %14 = getelementptr inbounds [4 x i8], [4 x i8]* %3, i64 0, i64 0
  %15 = call i32 @strcmp(i8* %13, i8* %14) #6
  %16 = icmp ne i32 %15, 0
  br i1 %16, label %17, label %31

17:                                               ; preds = %1
  %18 = load %struct.stu*, %struct.stu** %6, align 8
  store %struct.stu* %18, %struct.stu** %4, align 8
  %19 = load %struct.stu*, %struct.stu** %6, align 8
  %20 = getelementptr inbounds %struct.stu, %struct.stu* %19, i32 0, i32 0
  store %struct.stu* null, %struct.stu** %20, align 8
  %21 = load %struct.stu*, %struct.stu** %6, align 8
  %22 = getelementptr inbounds %struct.stu, %struct.stu* %21, i32 0, i32 1
  %23 = getelementptr inbounds [100 x i8], [100 x i8]* %22, i64 0, i64 0
  %24 = getelementptr inbounds [100 x i8], [100 x i8]* %2, i64 0, i64 0
  %25 = call i8* @strcpy(i8* %23, i8* %24) #5
  %26 = load %struct.stu*, %struct.stu** %6, align 8
  %27 = getelementptr inbounds %struct.stu, %struct.stu* %26, i32 0, i32 2
  store %struct.stu* null, %struct.stu** %27, align 8
  %28 = getelementptr inbounds [100 x i8], [100 x i8]* %2, i64 0, i64 0
  %29 = call i32 (i8*, ...) bitcast (i32 (...)* @gets to i32 (i8*, ...)*)(i8* %28)
  %30 = load %struct.stu*, %struct.stu** %6, align 8
  store %struct.stu* %30, %struct.stu** %5, align 8
  br label %31

31:                                               ; preds = %17, %1
  br label %32

32:                                               ; preds = %37, %31
  %33 = getelementptr inbounds [100 x i8], [100 x i8]* %2, i64 0, i64 0
  %34 = getelementptr inbounds [4 x i8], [4 x i8]* %3, i64 0, i64 0
  %35 = call i32 @strcmp(i8* %33, i8* %34) #6
  %36 = icmp ne i32 %35, 0
  br i1 %36, label %37, label %56

37:                                               ; preds = %32
  %38 = call noalias i8* @malloc(i64 100) #5
  %39 = bitcast i8* %38 to %struct.stu*
  store %struct.stu* %39, %struct.stu** %6, align 8
  %40 = load %struct.stu*, %struct.stu** %6, align 8
  %41 = load %struct.stu*, %struct.stu** %5, align 8
  %42 = getelementptr inbounds %struct.stu, %struct.stu* %41, i32 0, i32 2
  store %struct.stu* %40, %struct.stu** %42, align 8
  %43 = load %struct.stu*, %struct.stu** %5, align 8
  %44 = load %struct.stu*, %struct.stu** %6, align 8
  %45 = getelementptr inbounds %struct.stu, %struct.stu* %44, i32 0, i32 0
  store %struct.stu* %43, %struct.stu** %45, align 8
  %46 = load %struct.stu*, %struct.stu** %6, align 8
  %47 = getelementptr inbounds %struct.stu, %struct.stu* %46, i32 0, i32 1
  %48 = getelementptr inbounds [100 x i8], [100 x i8]* %47, i64 0, i64 0
  %49 = getelementptr inbounds [100 x i8], [100 x i8]* %2, i64 0, i64 0
  %50 = call i8* @strcpy(i8* %48, i8* %49) #5
  %51 = load %struct.stu*, %struct.stu** %6, align 8
  %52 = getelementptr inbounds %struct.stu, %struct.stu* %51, i32 0, i32 2
  store %struct.stu* null, %struct.stu** %52, align 8
  %53 = load %struct.stu*, %struct.stu** %6, align 8
  store %struct.stu* %53, %struct.stu** %5, align 8
  %54 = getelementptr inbounds [100 x i8], [100 x i8]* %2, i64 0, i64 0
  %55 = call i32 (i8*, ...) bitcast (i32 (...)* @gets to i32 (i8*, ...)*)(i8* %54)
  br label %32

56:                                               ; preds = %32
  %57 = load %struct.stu*, %struct.stu** %5, align 8
  store %struct.stu* %57, %struct.stu** %7, align 8
  br label %58

58:                                               ; preds = %61, %56
  %59 = load %struct.stu*, %struct.stu** %5, align 8
  %60 = icmp ne %struct.stu* %59, null
  br i1 %60, label %61, label %69

61:                                               ; preds = %58
  %62 = load %struct.stu*, %struct.stu** %5, align 8
  %63 = getelementptr inbounds %struct.stu, %struct.stu* %62, i32 0, i32 1
  %64 = getelementptr inbounds [100 x i8], [100 x i8]* %63, i64 0, i64 0
  %65 = call i32 (i8*, ...) @printf(i8* getelementptr inbounds ([4 x i8], [4 x i8]* @.str, i64 0, i64 0), i8* %64)
  %66 = load %struct.stu*, %struct.stu** %5, align 8
  %67 = getelementptr inbounds %struct.stu, %struct.stu* %66, i32 0, i32 0
  %68 = load %struct.stu*, %struct.stu** %67, align 8
  store %struct.stu* %68, %struct.stu** %5, align 8
  br label %58

69:                                               ; preds = %58
  ret void
}

; Function Attrs: argmemonly nounwind willreturn
declare void @llvm.memcpy.p0i8.p0i8.i64(i8* noalias nocapture writeonly, i8* noalias nocapture readonly, i64, i1 immarg) #1

declare dso_local i32 @gets(...) #2

; Function Attrs: nounwind
declare dso_local noalias i8* @malloc(i64) #3

; Function Attrs: nounwind readonly
declare dso_local i32 @strcmp(i8*, i8*) #4

; Function Attrs: nounwind
declare dso_local i8* @strcpy(i8*, i8*) #3

declare dso_local i32 @printf(i8*, ...) #2


!llvm.module.flags = !{!0}
!llvm.ident = !{!1}

!0 = !{i32 1, !"wchar_size", i32 4}
!1 = !{!"clang version 10.0.0-4ubuntu1 "}
